Certificate:
    Data:
        Version: 3 (0x2)
        Serial Number: 2 (0x2)
    Signature Algorithm: sha1WithRSAEncryption
        Issuer: C=US, ST=CA, L=SanFrancisco, O=Fort-Funston, OU=changeme, CN=changeme/name=changeme/emailAddress=mail@host.domain
        Validity
            Not Before: Nov 30 17:09:50 2020 GMT
            Not After : Nov 28 17:09:50 2030 GMT
        Subject: C=US, ST=CA, L=SanFrancisco, O=Fort-Funston, OU=changeme, CN=client_s/name=changeme/emailAddress=mail@host.domain
        Subject Public Key Info:
            Public Key Algorithm: rsaEncryption
                Public-Key: (4096 bit)
                Modulus:
                    00:e0:d8:35:8b:42:d0:b1:c2:ac:f7:0b:c9:e3:7a:
                    4c:c2:3e:cc:d7:71:ec:bc:84:70:09:af:d1:ef:71:
                    c7:c1:3a:ca:39:c0:27:e9:79:46:4e:ef:4f:ff:70:
                    d2:03:46:02:7d:7d:a3:8e:ad:e9:09:11:87:1e:15:
                    af:4d:d1:f7:42:8b:79:9f:37:a3:de:3a:91:ea:78:
                    93:b9:b4:5a:28:fd:a0:e8:0a:0e:63:fd:fe:3b:cb:
                    cc:60:b4:76:87:2f:2c:a1:58:cb:bd:88:f7:13:da:
                    5d:ec:55:92:84:f4:65:51:57:53:c8:d4:9f:e8:07:
                    ff:c0:b6:24:20:ab:c3:fe:5c:05:8a:65:35:b1:b3:
                    4f:a2:8f:73:86:09:ee:67:3c:b9:aa:f0:1a:b7:95:
                    fb:76:08:c2:bd:d4:9d:42:ee:ee:11:e2:06:16:67:
                    c8:9d:56:47:df:bf:08:fe:e9:58:d9:d3:c3:72:44:
                    89:a2:3f:5f:29:47:8d:ac:fd:51:e2:f7:c8:16:0a:
                    fd:71:50:8c:ae:c3:c2:d5:bd:4d:c9:e5:a9:9a:e5:
                    36:4c:3c:1d:ed:a0:56:9f:ab:b8:3d:c2:0b:52:fe:
                    c4:80:06:d3:ff:88:cd:3c:b2:a7:e0:7c:6d:33:87:
                    a3:a5:87:0e:ca:45:b2:4a:da:34:88:1d:c9:e0:94:
                    bd:de:60:3e:ee:dd:83:d2:66:ac:47:b0:f3:d4:c4:
                    62:6b:64:fa:a1:36:4f:a4:a3:14:89:b9:b9:dc:fe:
                    d2:b5:26:81:73:61:7b:f8:fd:de:e5:7c:c4:d1:39:
                    e1:9b:33:fd:bc:88:c7:82:19:e9:ea:43:69:90:ec:
                    f6:be:38:23:10:c0:0f:63:f8:47:42:dc:6e:1a:50:
                    c2:91:0e:0a:10:9a:d8:c6:3e:e6:8c:3c:19:61:7e:
                    26:ca:26:bd:1c:86:d9:a5:f0:80:e9:71:a7:4e:d6:
                    0d:25:23:43:68:d4:88:45:79:1e:23:53:9c:53:ce:
                    dc:5c:08:ca:c2:d0:81:54:6a:98:7f:86:19:c2:81:
                    6d:0f:92:cc:de:a3:62:37:ec:70:2b:14:16:26:8d:
                    ba:6b:fd:fc:30:3a:93:59:28:09:ed:65:4a:62:65:
                    16:f9:41:eb:20:7c:32:39:5c:64:5d:a3:a2:89:1b:
                    47:e2:7c:52:39:d1:48:3a:13:af:33:6f:47:84:e1:
                    83:24:91:a2:52:4a:a9:74:55:71:a8:a9:c7:da:62:
                    7f:f5:db:fd:26:76:e5:a7:56:20:b2:f8:ee:58:27:
                    ab:47:f1:65:66:6e:6c:44:c1:ec:61:1a:fc:ec:f1:
                    d5:4b:13:63:c6:de:d6:71:68:ff:23:e5:d4:40:f0:
                    2b:d9:3b
                Exponent: 65537 (0x10001)
        X509v3 extensions:
            X509v3 Basic Constraints: 
                CA:FALSE
            Netscape Comment: 
                Easy-RSA Generated Certificate
            X509v3 Subject Key Identifier: 
                03:DB:4F:07:52:8C:67:FE:FD:7B:9D:1A:F8:78:8F:1A:37:11:80:0C
            X509v3 Authority Key Identifier: 
                keyid:AB:EA:A4:D9:52:80:40:5A:28:03:D8:FC:A0:12:44:1F:6A:D9:40:25
                DirName:/C=US/ST=CA/L=SanFrancisco/O=Fort-Funston/OU=changeme/CN=changeme/name=changeme/emailAddress=mail@host.domain
                serial:8C:CF:57:1B:EE:19:CA:7E

            X509v3 Extended Key Usage: 
                TLS Web Client Authentication
            X509v3 Key Usage: 
                Digital Signature
    Signature Algorithm: sha1WithRSAEncryption
         0c:55:85:62:94:ac:6e:04:d9:85:5b:e6:8b:c7:37:18:6d:cc:
         53:80:9b:ad:5b:41:64:d7:84:4c:00:b1:f2:38:d6:a0:4c:9e:
         2d:17:56:b2:42:82:c6:de:14:eb:5c:05:39:a4:7b:42:2f:60:
         6e:ca:39:ef:45:fa:c7:68:dc:f5:e4:5e:8c:ea:65:5a:d0:6d:
         0b:a4:77:85:1c:57:2d:b8:89:bd:13:0c:c0:6e:85:87:15:20:
         2c:c2:c6:8d:e6:42:83:bb:13:89:79:f2:67:68:bd:b2:9b:44:
         d3:fa:46:47:ba:9e:61:90:fc:b4:2b:33:76:44:f8:9a:b0:a6:
         c0:c2:ed:12:8a:63:be:72:42:09:91:ef:32:7c:2c:d8:99:ac:
         ea:08:68:9c:8e:26:57:96:8d:14:81:cd:00:b0:ad:4d:d3:78:
         e6:3c:28:d6:82:59:93:00:1f:fa:f9:5a:bf:bd:f3:05:a5:27:
         2a:24:cc:7a:82:63:c8:df:e2:71:00:38:e0:95:8b:ce:95:69:
         ec:0a:85:a0:42:e4:67:6f:ff:f2:eb:8b:7e:75:fe:43:18:a4:
         57:0a:3d:6d:16:fc:41:5e:09:f9:5b:0b:b9:4e:a3:4b:99:55:
         07:5c:6d:58:66:29:e7:f4:6d:ca:ab:71:54:8f:54:18:39:3a:
         99:34:d8:d4:2c:b4:c0:3e:1d:25:3b:dc:49:1c:ca:68:b5:08:
         98:6a:bb:d9:d8:be:ac:4c:58:54:93:bd:fe:da:c3:05:c3:8b:
         2c:77:86:0d:cd:5f:8e:c3:a9:34:98:86:05:45:c0:e8:91:f6:
         31:21:db:da:cd:ba:5a:2a:54:3e:7a:8f:46:e3:2e:e4:3d:12:
         2a:01:e9:21:1f:81:67:78:81:4b:e8:ee:86:20:49:fb:7f:e3:
         2d:10:45:3e:87:62:ad:4e:3b:19:57:da:00:3d:b5:ef:2a:b3:
         bc:1e:e3:aa:94:f4:cd:73:fd:46:2b:49:0d:8a:46:9c:d2:76:
         2c:9d:4a:c5:84:d1:54:12:26:6a:56:98:4f:71:2a:65:4c:f5:
         73:32:62:a9:11:26:6a:5f:13:3a:37:58:de:44:5b:7d:ab:c9:
         32:a8:e5:ab:2d:98:fb:47:65:d0:9d:73:2c:73:af:28:94:6b:
         a9:2d:82:ba:c0:43:78:d7:51:90:9e:e1:b3:a0:1e:18:1c:ef:
         69:80:c9:05:3d:19:4e:f8:75:72:d5:ac:c4:9f:01:fa:60:81:
         f9:fe:04:32:e3:0d:8b:96:80:c4:d5:a0:89:0b:c1:b0:30:4b:
         1f:c7:20:a1:a6:f9:b6:6e:51:12:50:3c:8c:40:b5:60:b6:e1:
         9f:c5:f3:80:de:47:95:c0
-----BEGIN CERTIFICATE-----
MIIHHDCCBQSgAwIBAgIBAjANBgkqhkiG9w0BAQUFADCBojELMAkGA1UEBhMCVVMx
CzAJBgNVBAgTAkNBMRUwEwYDVQQHEwxTYW5GcmFuY2lzY28xFTATBgNVBAoTDEZv
cnQtRnVuc3RvbjERMA8GA1UECxMIY2hhbmdlbWUxETAPBgNVBAMTCGNoYW5nZW1l
MREwDwYDVQQpEwhjaGFuZ2VtZTEfMB0GCSqGSIb3DQEJARYQbWFpbEBob3N0LmRv
bWFpbjAeFw0yMDExMzAxNzA5NTBaFw0zMDExMjgxNzA5NTBaMIGiMQswCQYDVQQG
EwJVUzELMAkGA1UECBMCQ0ExFTATBgNVBAcTDFNhbkZyYW5jaXNjbzEVMBMGA1UE
ChMMRm9ydC1GdW5zdG9uMREwDwYDVQQLEwhjaGFuZ2VtZTERMA8GA1UEAxQIY2xp
ZW50X3MxETAPBgNVBCkTCGNoYW5nZW1lMR8wHQYJKoZIhvcNAQkBFhBtYWlsQGhv
c3QuZG9tYWluMIICIjANBgkqhkiG9w0BAQEFAAOCAg8AMIICCgKCAgEA4Ng1i0LQ
scKs9wvJ43pMwj7M13HsvIRwCa/R73HHwTrKOcAn6XlGTu9P/3DSA0YCfX2jjq3p
CRGHHhWvTdH3Qot5nzej3jqR6niTubRaKP2g6AoOY/3+O8vMYLR2hy8soVjLvYj3
E9pd7FWShPRlUVdTyNSf6Af/wLYkIKvD/lwFimU1sbNPoo9zhgnuZzy5qvAat5X7
dgjCvdSdQu7uEeIGFmfInVZH378I/ulY2dPDckSJoj9fKUeNrP1R4vfIFgr9cVCM
rsPC1b1NyeWpmuU2TDwd7aBWn6u4PcILUv7EgAbT/4jNPLKn4HxtM4ejpYcOykWy
Sto0iB3J4JS93mA+7t2D0masR7Dz1MRia2T6oTZPpKMUibm53P7StSaBc2F7+P3e
5XzE0TnhmzP9vIjHghnp6kNpkOz2vjgjEMAPY/hHQtxuGlDCkQ4KEJrYxj7mjDwZ
YX4myia9HIbZpfCA6XGnTtYNJSNDaNSIRXkeI1OcU87cXAjKwtCBVGqYf4YZwoFt
D5LM3qNiN+xwKxQWJo26a/38MDqTWSgJ7WVKYmUW+UHrIHwyOVxkXaOiiRtH4nxS
OdFIOhOvM29HhOGDJJGiUkqpdFVxqKnH2mJ/9dv9Jnblp1YgsvjuWCerR/FlZm5s
RMHsYRr87PHVSxNjxt7WcWj/I+XUQPAr2TsCAwEAAaOCAVkwggFVMAkGA1UdEwQC
MAAwLQYJYIZIAYb4QgENBCAWHkVhc3ktUlNBIEdlbmVyYXRlZCBDZXJ0aWZpY2F0
ZTAdBgNVHQ4EFgQUA9tPB1KMZ/79e50a+HiPGjcRgAwwgdcGA1UdIwSBzzCBzIAU
q+qk2VKAQFooA9j8oBJEH2rZQCWhgaikgaUwgaIxCzAJBgNVBAYTAlVTMQswCQYD
VQQIEwJDQTEVMBMGA1UEBxMMU2FuRnJhbmNpc2NvMRUwEwYDVQQKEwxGb3J0LUZ1
bnN0b24xETAPBgNVBAsTCGNoYW5nZW1lMREwDwYDVQQDEwhjaGFuZ2VtZTERMA8G
A1UEKRMIY2hhbmdlbWUxHzAdBgkqhkiG9w0BCQEWEG1haWxAaG9zdC5kb21haW6C
CQCMz1cb7hnKfjATBgNVHSUEDDAKBggrBgEFBQcDAjALBgNVHQ8EBAMCB4AwDQYJ
KoZIhvcNAQEFBQADggIBAAxVhWKUrG4E2YVb5ovHNxhtzFOAm61bQWTXhEwAsfI4
1qBMni0XVrJCgsbeFOtcBTmke0IvYG7KOe9F+sdo3PXkXozqZVrQbQukd4UcVy24
ib0TDMBuhYcVICzCxo3mQoO7E4l58mdovbKbRNP6Rke6nmGQ/LQrM3ZE+JqwpsDC
7RKKY75yQgmR7zJ8LNiZrOoIaJyOJleWjRSBzQCwrU3TeOY8KNaCWZMAH/r5Wr+9
8wWlJyokzHqCY8jf4nEAOOCVi86VaewKhaBC5Gdv//Lri351/kMYpFcKPW0W/EFe
CflbC7lOo0uZVQdcbVhmKef0bcqrcVSPVBg5Opk02NQstMA+HSU73Ekcymi1CJhq
u9nYvqxMWFSTvf7awwXDiyx3hg3NX47DqTSYhgVFwOiR9jEh29rNuloqVD56j0bj
LuQ9EioB6SEfgWd4gUvo7oYgSft/4y0QRT6HYq1OOxlX2gA9te8qs7we46qU9M1z
/UYrSQ2KRpzSdiydSsWE0VQSJmpWmE9xKmVM9XMyYqkRJmpfEzo3WN5EW32ryTKo
5astmPtHZdCdcyxzryiUa6ktgrrAQ3jXUZCe4bOgHhgc72mAyQU9GU74dXLVrMSf
Afpggfn+BDLjDYuWgMTVoIkLwbAwSx/HIKGm+bZuURJQPIxAtWC24Z/F84DeR5XA
-----END CERTIFICATE-----
