Certificate:
    Data:
        Version: 3 (0x2)
        Serial Number: 1 (0x1)
    Signature Algorithm: sha1WithRSAEncryption
        Issuer: C=US, ST=CA, L=SanFrancisco, O=Fort-Funston, OU=changeme, CN=changeme/name=changeme/emailAddress=mail@host.domain
        Validity
            Not Before: Nov 30 17:06:54 2020 GMT
            Not After : Nov 28 17:06:54 2030 GMT
        Subject: C=US, ST=CA, L=SanFrancisco, O=Fort-Funston, OU=changeme, CN=server/name=changeme/emailAddress=mail@host.domain
        Subject Public Key Info:
            Public Key Algorithm: rsaEncryption
                Public-Key: (4096 bit)
                Modulus:
                    00:a8:51:85:6d:77:1c:40:df:f9:fc:75:fa:fd:69:
                    bf:e4:29:67:c6:ac:ca:10:3c:13:4c:df:f3:a9:f5:
                    0c:0d:b8:ac:41:ab:23:52:7a:bd:e7:8a:51:fb:f9:
                    ef:72:d8:4b:c2:29:61:5c:67:e5:fe:a7:5f:7b:fa:
                    be:8b:e0:f3:59:75:30:39:4b:a5:13:fb:81:12:42:
                    59:59:e9:2e:df:c2:16:89:3c:9b:c8:91:21:ef:be:
                    88:2b:a0:3f:03:0e:1d:c6:7c:8d:e9:8f:9f:53:fb:
                    1e:d1:e4:87:d5:b6:ae:93:bf:cc:ba:74:03:96:77:
                    f7:0e:b2:d7:30:59:aa:83:a6:f3:43:3e:32:c0:23:
                    98:6a:7a:03:73:44:2a:13:88:19:06:2e:30:7b:75:
                    19:2f:fc:a9:8e:75:02:d4:d8:18:bd:58:49:06:e7:
                    bb:d0:41:1e:84:ee:ed:47:dd:65:97:14:b5:01:2a:
                    98:e3:e3:11:82:51:3f:a7:05:6d:82:5b:b3:09:6d:
                    8a:a5:bc:1d:e0:28:38:8c:51:ed:72:1e:8f:8c:85:
                    fd:05:41:5b:b2:cd:e8:f4:60:d4:ca:2e:1a:e7:32:
                    b6:83:18:f5:4f:7d:0b:ba:4b:35:a0:b6:27:ef:f2:
                    bb:9a:66:02:5e:4a:32:e5:1a:a2:1e:61:ae:be:14:
                    8b:f3:ba:b1:41:95:08:d7:7e:11:8f:a9:ba:9b:a1:
                    e1:cf:60:89:39:86:b7:bb:9c:68:9a:f8:15:67:82:
                    c9:1d:1a:d6:f4:7d:8d:87:ee:42:b9:d7:fa:7c:a0:
                    f4:90:ff:ce:3f:4b:71:fe:58:be:a8:51:c2:da:c7:
                    c7:9d:03:81:76:73:e3:b6:0a:2b:44:ad:ad:7c:f0:
                    fa:11:7c:bd:f0:0a:b3:4a:78:22:5b:61:c5:ee:6a:
                    af:bb:c5:28:2a:ba:46:67:6a:52:1a:78:68:17:92:
                    72:d5:66:1b:14:73:d1:7d:2d:f6:42:cc:bf:e1:4a:
                    d9:a3:7f:34:64:56:83:bd:90:ce:8e:18:7f:09:3d:
                    dd:db:3e:ec:e0:be:d5:9d:e5:e1:bc:76:c7:5f:3f:
                    9c:ca:a0:b2:cf:d1:af:22:c6:84:a5:6a:94:10:be:
                    62:6d:a3:ec:31:f1:09:6c:7d:2f:a7:d3:0d:c7:46:
                    a5:06:17:37:fe:11:24:12:76:00:a8:d2:a6:ac:b0:
                    d3:a5:7b:0a:69:1e:2c:d5:58:f1:a9:6d:18:cd:f8:
                    8a:20:61:eb:44:29:6d:22:e0:ac:4f:bc:fe:86:18:
                    7a:72:9f:f5:41:4a:0a:3f:f6:ca:68:dd:aa:74:ca:
                    36:c8:37:43:31:d8:66:9d:db:e1:6d:9a:d3:0a:7c:
                    5e:18:17
                Exponent: 65537 (0x10001)
        X509v3 extensions:
            X509v3 Basic Constraints: 
                CA:FALSE
            Netscape Cert Type: 
                SSL Server
            Netscape Comment: 
                Easy-RSA Generated Server Certificate
            X509v3 Subject Key Identifier: 
                29:CB:DD:D8:12:98:97:D3:09:A0:5B:2B:A5:F7:AF:36:F6:3E:D5:D9
            X509v3 Authority Key Identifier: 
                keyid:AB:EA:A4:D9:52:80:40:5A:28:03:D8:FC:A0:12:44:1F:6A:D9:40:25
                DirName:/C=US/ST=CA/L=SanFrancisco/O=Fort-Funston/OU=changeme/CN=changeme/name=changeme/emailAddress=mail@host.domain
                serial:8C:CF:57:1B:EE:19:CA:7E

            X509v3 Extended Key Usage: 
                TLS Web Server Authentication
            X509v3 Key Usage: 
                Digital Signature, Key Encipherment
    Signature Algorithm: sha1WithRSAEncryption
         5b:86:04:76:47:19:94:fc:c3:15:b3:78:f2:07:ea:65:5e:84:
         aa:90:31:6d:7c:ba:3e:f5:4d:d1:4a:89:a0:5a:64:29:a9:ba:
         aa:a2:5b:cc:42:36:cd:04:f3:61:8b:c1:9d:49:46:a1:0b:2f:
         6b:2f:30:a1:90:37:49:c7:92:ec:44:24:07:46:88:85:01:60:
         22:8e:cd:da:6e:93:1b:3c:d7:37:47:89:48:0e:e2:13:29:1e:
         3f:d9:80:6b:21:c3:65:30:19:18:90:6d:fb:c3:0b:d1:bd:22:
         6a:ed:1a:e8:1c:9e:03:c1:cd:30:0e:d2:41:75:84:33:03:71:
         20:b6:09:04:1e:b4:cc:13:f2:ce:ac:97:f6:49:fd:1e:36:84:
         5a:50:b9:00:2f:3b:b1:1f:3b:25:3f:f7:56:89:52:01:dd:4a:
         81:89:4c:2d:1b:bf:5c:7c:a1:06:19:46:1f:ef:df:aa:d7:78:
         15:1e:be:26:e8:88:df:91:2e:11:d1:b5:75:47:bb:48:c3:29:
         1d:b6:89:cf:74:70:d5:e3:1a:77:67:d5:6f:84:bb:5b:c9:25:
         f2:86:27:85:91:d0:1b:ae:ea:ad:4e:09:0a:16:14:fa:8a:6c:
         31:6e:bd:ed:b3:18:f4:45:15:03:aa:af:da:50:98:d9:4c:3e:
         f2:1f:b0:76:8d:b1:d2:a3:94:18:79:8f:74:d5:7e:95:86:c2:
         1e:0e:4f:b9:cf:40:f2:24:2d:cd:28:2c:21:ba:da:0c:65:9e:
         7b:3f:c1:00:58:99:62:a3:3b:26:77:be:67:a4:f7:ae:2c:8c:
         7a:2b:00:35:f9:b3:46:e9:53:eb:9e:87:95:6d:31:ad:9f:74:
         cc:c9:41:5b:ce:3b:72:b1:d1:41:70:19:24:55:5e:1e:fd:ea:
         e1:d7:6d:6a:56:ec:35:2b:c2:a6:03:02:f7:f9:84:ed:66:db:
         06:bc:ea:93:02:99:fa:04:bd:4c:80:9c:8a:67:b0:01:b9:7e:
         88:23:9a:68:3f:72:0f:29:d1:31:31:7f:82:2e:92:25:2f:81:
         3b:8d:8b:a5:41:ea:3a:3e:d8:43:13:1c:a7:d3:58:0b:71:74:
         19:f6:43:c9:94:73:98:d6:09:37:15:df:d9:55:30:3f:d3:36:
         a6:00:23:d1:f2:59:33:e4:1f:63:db:ae:38:38:0b:02:ad:4f:
         fa:8b:fc:f9:af:82:92:b8:91:7e:fc:2c:e5:8f:c4:b2:24:f5:
         6a:6c:03:75:3a:21:47:52:d4:0d:86:5d:8d:fd:3f:4c:15:db:
         e8:a8:90:e2:ec:01:77:9f:f0:15:5b:ea:be:5a:11:15:bd:2c:
         ff:c7:bb:ff:1e:7c:25:d5
-----BEGIN CERTIFICATE-----
MIIHNDCCBRygAwIBAgIBATANBgkqhkiG9w0BAQUFADCBojELMAkGA1UEBhMCVVMx
CzAJBgNVBAgTAkNBMRUwEwYDVQQHEwxTYW5GcmFuY2lzY28xFTATBgNVBAoTDEZv
cnQtRnVuc3RvbjERMA8GA1UECxMIY2hhbmdlbWUxETAPBgNVBAMTCGNoYW5nZW1l
MREwDwYDVQQpEwhjaGFuZ2VtZTEfMB0GCSqGSIb3DQEJARYQbWFpbEBob3N0LmRv
bWFpbjAeFw0yMDExMzAxNzA2NTRaFw0zMDExMjgxNzA2NTRaMIGgMQswCQYDVQQG
EwJVUzELMAkGA1UECBMCQ0ExFTATBgNVBAcTDFNhbkZyYW5jaXNjbzEVMBMGA1UE
ChMMRm9ydC1GdW5zdG9uMREwDwYDVQQLEwhjaGFuZ2VtZTEPMA0GA1UEAxMGc2Vy
dmVyMREwDwYDVQQpEwhjaGFuZ2VtZTEfMB0GCSqGSIb3DQEJARYQbWFpbEBob3N0
LmRvbWFpbjCCAiIwDQYJKoZIhvcNAQEBBQADggIPADCCAgoCggIBAKhRhW13HEDf
+fx1+v1pv+QpZ8asyhA8E0zf86n1DA24rEGrI1J6veeKUfv573LYS8IpYVxn5f6n
X3v6vovg81l1MDlLpRP7gRJCWVnpLt/CFok8m8iRIe++iCugPwMOHcZ8jemPn1P7
HtHkh9W2rpO/zLp0A5Z39w6y1zBZqoOm80M+MsAjmGp6A3NEKhOIGQYuMHt1GS/8
qY51AtTYGL1YSQbnu9BBHoTu7UfdZZcUtQEqmOPjEYJRP6cFbYJbswltiqW8HeAo
OIxR7XIej4yF/QVBW7LN6PRg1MouGucytoMY9U99C7pLNaC2J+/yu5pmAl5KMuUa
oh5hrr4Ui/O6sUGVCNd+EY+pupuh4c9giTmGt7ucaJr4FWeCyR0a1vR9jYfuQrnX
+nyg9JD/zj9Lcf5YvqhRwtrHx50DgXZz47YKK0StrXzw+hF8vfAKs0p4Ilthxe5q
r7vFKCq6RmdqUhp4aBeSctVmGxRz0X0t9kLMv+FK2aN/NGRWg72Qzo4Yfwk93ds+
7OC+1Z3l4bx2x18/nMqgss/RryLGhKVqlBC+Ym2j7DHxCWx9L6fTDcdGpQYXN/4R
JBJ2AKjSpqyw06V7CmkeLNVY8altGM34iiBh60QpbSLgrE+8/oYYenKf9UFKCj/2
ymjdqnTKNsg3QzHYZp3b4W2a0wp8XhgXAgMBAAGjggFzMIIBbzAJBgNVHRMEAjAA
MBEGCWCGSAGG+EIBAQQEAwIGQDA0BglghkgBhvhCAQ0EJxYlRWFzeS1SU0EgR2Vu
ZXJhdGVkIFNlcnZlciBDZXJ0aWZpY2F0ZTAdBgNVHQ4EFgQUKcvd2BKYl9MJoFsr
pfevNvY+1dkwgdcGA1UdIwSBzzCBzIAUq+qk2VKAQFooA9j8oBJEH2rZQCWhgaik
gaUwgaIxCzAJBgNVBAYTAlVTMQswCQYDVQQIEwJDQTEVMBMGA1UEBxMMU2FuRnJh
bmNpc2NvMRUwEwYDVQQKEwxGb3J0LUZ1bnN0b24xETAPBgNVBAsTCGNoYW5nZW1l
MREwDwYDVQQDEwhjaGFuZ2VtZTERMA8GA1UEKRMIY2hhbmdlbWUxHzAdBgkqhkiG
9w0BCQEWEG1haWxAaG9zdC5kb21haW6CCQCMz1cb7hnKfjATBgNVHSUEDDAKBggr
BgEFBQcDATALBgNVHQ8EBAMCBaAwDQYJKoZIhvcNAQEFBQADggIBAFuGBHZHGZT8
wxWzePIH6mVehKqQMW18uj71TdFKiaBaZCmpuqqiW8xCNs0E82GLwZ1JRqELL2sv
MKGQN0nHkuxEJAdGiIUBYCKOzdpukxs81zdHiUgO4hMpHj/ZgGshw2UwGRiQbfvD
C9G9ImrtGugcngPBzTAO0kF1hDMDcSC2CQQetMwT8s6sl/ZJ/R42hFpQuQAvO7Ef
OyU/91aJUgHdSoGJTC0bv1x8oQYZRh/v36rXeBUeviboiN+RLhHRtXVHu0jDKR22
ic90cNXjGndn1W+Eu1vJJfKGJ4WR0Buu6q1OCQoWFPqKbDFuve2zGPRFFQOqr9pQ
mNlMPvIfsHaNsdKjlBh5j3TVfpWGwh4OT7nPQPIkLc0oLCG62gxlnns/wQBYmWKj
OyZ3vmek964sjHorADX5s0bpU+ueh5VtMa2fdMzJQVvOO3Kx0UFwGSRVXh796uHX
bWpW7DUrwqYDAvf5hO1m2wa86pMCmfoEvUyAnIpnsAG5fogjmmg/cg8p0TExf4Iu
kiUvgTuNi6VB6jo+2EMTHKfTWAtxdBn2Q8mUc5jWCTcV39lVMD/TNqYAI9HyWTPk
H2Pbrjg4CwKtT/qL/PmvgpK4kX78LOWPxLIk9WpsA3U6IUdS1A2GXY39P0wV2+io
kOLsAXef8BVb6r5aERW9LP/Hu/8efCXV
-----END CERTIFICATE-----
